         name @rpath/libthorvg-1.1.dylib (offset 24)
compatibility version 1.0.0
__ZN3tvg11Initializer4initEj T
__ZN3tvg11Initializer4termEv T
__ZN3tvg11Initializer7versionEPjS1_S1_ T
__ZN3tvg14LinearGradient3genEv T
__ZN3tvg14LinearGradient6linearEffff T
__ZN3tvg14LinearGradientC1Ev T
__ZN3tvg14LinearGradientC2Ev T
__ZN3tvg14RadialGradient3genEv T
__ZN3tvg14RadialGradient6radialEffffff T
__ZN3tvg14RadialGradientC1Ev T
__ZN3tvg14RadialGradientC2Ev T
__ZN3tvg15LottieAnimation10markersCntEv T
__ZN3tvg15LottieAnimation3delEj T
__ZN3tvg15LottieAnimation3genEPKc T
__ZN3tvg15LottieAnimation3genEv T
__ZN3tvg15LottieAnimation5applyEj T
__ZN3tvg15LottieAnimation5tweenEfff T
__ZN3tvg15LottieAnimation6assignEPKcjS2_f T
__ZN3tvg15LottieAnimation6markerEj T
__ZN3tvg15LottieAnimation6markerEjPfS1_ T
__ZN3tvg15LottieAnimation7qualityEh T
__ZN3tvg15LottieAnimation7segmentEPKc T
__ZN3tvg15LottieAnimationC1Ev T
__ZN3tvg15LottieAnimationC2Ev T
__ZN3tvg15LottieAnimationD0Ev T
__ZN3tvg15LottieAnimationD1Ev T
__ZN3tvg15LottieAnimationD2Ev T
__ZN3tvg4Fill10colorStopsEPKNS0_9ColorStopEj T
__ZN3tvg4Fill4Impl4copyERKS1_ T
__ZN3tvg4Fill4Impl6updateEPKNS0_9ColorStopEj T
__ZN3tvg4Fill6spreadENS_10FillSpreadE T
__ZN3tvg4Fill9transformERKNS_6MatrixE T
__ZN3tvg4FillC2Ev T
__ZN3tvg4FillD0Ev T
__ZN3tvg4FillD1Ev T
__ZN3tvg4FillD2Ev T
__ZN3tvg4Text3genEv T
__ZN3tvg4Text4fillEPNS_4FillE T
__ZN3tvg4Text4fillEhhh T
__ZN3tvg4Text4fontEPKc T
__ZN3tvg4Text4loadEPKc T
__ZN3tvg4Text4loadEPKcS2_jS2_b T
__ZN3tvg4Text4sizeEf T
__ZN3tvg4Text4textEPKc T
__ZN3tvg4Text4wrapENS_8TextWrapE T
__ZN3tvg4Text5alignEff T
__ZN3tvg4Text5linesEv T
__ZN3tvg4Text6italicEf T
__ZN3tvg4Text6layoutEff T
__ZN3tvg4Text6unloadEPKc T
__ZN3tvg4Text7outlineEfhhh T
__ZN3tvg4Text7spacingEff T
__ZN3tvg4TextC1Ev T
__ZN3tvg4TextC2Ev T
__ZN3tvg5Paint10intersectsEiiii T
__ZN3tvg5Paint3refEv T
__ZN3tvg5Paint3relEPS0_ T
__ZN3tvg5Paint4Impl10intersectsERKNS_12RenderRegionE T
__ZN3tvg5Paint4Impl10ptransformEv T
__ZN3tvg5Paint4Impl3refEv T
__ZN3tvg5Paint4Impl4clipEPNS_5ShapeE T
__ZN3tvg5Paint4Impl4markENS_15CompositionFlagE T
__ZN3tvg5Paint4Impl4markENS_16RenderUpdateFlagE T
__ZN3tvg5Paint4Impl4maskEPS0_NS_10MaskMethodE T
__ZN3tvg5Paint4Impl5blendENS_11BlendMethodE T
__ZN3tvg5Paint4Impl5resetEv T
__ZN3tvg5Paint4Impl5scaleEf T
__ZN3tvg5Paint4Impl5unrefEb T
__ZN3tvg5Paint4Impl6boundsEPNS_5PointEPKNS_6MatrixEb T
__ZN3tvg5Paint4Impl6boundsEv T
__ZN3tvg5Paint4Impl6damageERKNS_12RenderRegionE T
__ZN3tvg5Paint4Impl6damageEv T
__ZN3tvg5Paint4Impl6markedENS_15CompositionFlagE T
__ZN3tvg5Paint4Impl6markedENS_16RenderUpdateFlagE T
__ZN3tvg5Paint4Impl6renderEPNS_12RenderMethodENS_15CompositionFlagE T
__ZN3tvg5Paint4Impl6rotateEf T
__ZN3tvg5Paint4Impl6unrefxEb T
__ZN3tvg5Paint4Impl6updateEPNS_12RenderMethodERKNS_6MatrixERNS_5ArrayIPvEEhNS_16RenderUpdateFlagEb T
__ZN3tvg5Paint4Impl7visibleEb T
__ZN3tvg5Paint4Impl8iteratorEv T
__ZN3tvg5Paint4Impl9duplicateEPS0_ T
__ZN3tvg5Paint4Impl9transformERKNS_6MatrixE T
__ZN3tvg5Paint4Impl9transformEv T
__ZN3tvg5Paint4Impl9translateEff T
__ZN3tvg5Paint4ImplUt_6updateEv T
__ZN3tvg5Paint4clipEPNS_5ShapeE T
__ZN3tvg5Paint4maskEPS0_NS_10MaskMethodE T
__ZN3tvg5Paint5blendENS_11BlendMethodE T
__ZN3tvg5Paint5scaleEf T
__ZN3tvg5Paint5unrefEb T
__ZN3tvg5Paint6boundsEPNS_5PointE T
__ZN3tvg5Paint6boundsEPfS1_S1_S1_ T
__ZN3tvg5Paint6rotateEf T
__ZN3tvg5Paint7opacityEh T
__ZN3tvg5Paint7visibleEb T
__ZN3tvg5Paint9transformERKNS_6MatrixE T
__ZN3tvg5Paint9transformEv T
__ZN3tvg5Paint9translateEff T
__ZN3tvg5PaintC2Ev T
__ZN3tvg5PaintD0Ev T
__ZN3tvg5PaintD1Ev T
__ZN3tvg5PaintD2Ev T
__ZN3tvg5Saver10backgroundEPNS_5PaintE T
__ZN3tvg5Saver3genEv T
__ZN3tvg5Saver4saveEPNS_5PaintEPKcj T
__ZN3tvg5Saver4saveEPNS_9AnimationEPKcjj T
__ZN3tvg5Saver4syncEv T
__ZN3tvg5SaverC1Ev T
__ZN3tvg5SaverC2Ev T
__ZN3tvg5SaverD1Ev T
__ZN3tvg5SaverD2Ev T
__ZN3tvg5Scene3addENS_11SceneEffectEz T
__ZN3tvg5Scene3addEPNS_5PaintES2_ T
__ZN3tvg5Scene3genEv T
__ZN3tvg5Scene6removeEPNS_5PaintE T
__ZN3tvg5SceneC1Ev T
__ZN3tvg5SceneC2Ev T
__ZN3tvg5Shape10appendPathEPKNS_11PathCommandEjPKNS_5PointEj T
__ZN3tvg5Shape10appendRectEffffffb T
__ZN3tvg5Shape10strokeDashEPKfjf T
__ZN3tvg5Shape10strokeFillEPNS_4FillE T
__ZN3tvg5Shape10strokeFillEhhhh T
__ZN3tvg5Shape10strokeJoinENS_10StrokeJoinE T
__ZN3tvg5Shape11strokeWidthEf T
__ZN3tvg5Shape12appendCircleEffffb T
__ZN3tvg5Shape16strokeMiterlimitEf T
__ZN3tvg5Shape3genEv T
__ZN3tvg5Shape4fillEPNS_4FillE T
__ZN3tvg5Shape4fillEhhhh T
__ZN3tvg5Shape5closeEv T
__ZN3tvg5Shape5orderEb T
__ZN3tvg5Shape5resetEv T
__ZN3tvg5Shape6lineToEff T
__ZN3tvg5Shape6moveToEff T
__ZN3tvg5Shape7cubicToEffffff T
__ZN3tvg5Shape8fillRuleENS_8FillRuleE T
__ZN3tvg5Shape8trimpathEffb T
__ZN3tvg5Shape9strokeCapENS_9StrokeCapE T
__ZN3tvg5ShapeC1Ev T
__ZN3tvg5ShapeC2Ev T
__ZN3tvg6Canvas3addEPNS_5PaintES2_ T
__ZN3tvg6Canvas4Impl3addEPNS_5PaintES3_ T
__ZN3tvg6Canvas4Impl4drawEb T
__ZN3tvg6Canvas4Impl4syncEv T
__ZN3tvg6Canvas4Impl6removeEPNS_5PaintE T
__ZN3tvg6Canvas4Impl6updateEv T
__ZN3tvg6Canvas4Impl8viewportEiiii T
__ZN3tvg6Canvas4drawEb T
__ZN3tvg6Canvas4syncEv T
__ZN3tvg6Canvas6removeEPNS_5PaintE T
__ZN3tvg6Canvas6updateEv T
__ZN3tvg6Canvas8viewportEiiii T
__ZN3tvg6CanvasC1Ev T
__ZN3tvg6CanvasC2Ev T
__ZN3tvg6CanvasD0Ev T
__ZN3tvg6CanvasD1Ev T
__ZN3tvg6CanvasD2Ev T
__ZN3tvg7Picture3genEv T
__ZN3tvg7Picture4loadEPKc T
__ZN3tvg7Picture4loadEPKcjS2_S2_b T
__ZN3tvg7Picture4loadEPKjjjNS_10ColorSpaceEb T
__ZN3tvg7Picture4sizeEff T
__ZN3tvg7Picture5paintEj T
__ZN3tvg7Picture6filterENS_12FilterMethodE T
__ZN3tvg7Picture6originEff T
__ZN3tvg7Picture8resolverENSt3__18functionIFbPNS_5PaintEPKcPvEEES7_ T
__ZN3tvg7PictureC1Ev T
__ZN3tvg7PictureC2Ev T
__ZN3tvg8Accessor2idEPKc T
__ZN3tvg8Accessor3genEv T
__ZN3tvg8Accessor3setEPNS_5PaintENSt3__18functionIFbPKS1_PvEEES7_ T
__ZN3tvg8Accessor4nameEj T
__ZN3tvg8AccessorC1Ev T
__ZN3tvg8AccessorC2Ev T
__ZN3tvg8AccessorD0Ev T
__ZN3tvg8AccessorD1Ev T
__ZN3tvg8AccessorD2Ev T
__ZN3tvg8GlCanvas3genENS_12EngineOptionE T
__ZN3tvg8GlCanvas6targetEPvS1_S1_ijjNS_10ColorSpaceE T
__ZN3tvg8GlCanvasC1Ev T
__ZN3tvg8GlCanvasC2Ev T
__ZN3tvg8GlCanvasD0Ev T
__ZN3tvg8GlCanvasD1Ev T
__ZN3tvg8GlCanvasD2Ev T
__ZN3tvg8SwCanvas3genENS_12EngineOptionE T
__ZN3tvg8SwCanvas6targetEPjjjjNS_10ColorSpaceE T
__ZN3tvg8SwCanvasC1Ev T
__ZN3tvg8SwCanvasC2Ev T
__ZN3tvg8SwCanvasD0Ev T
__ZN3tvg8SwCanvasD1Ev T
__ZN3tvg8SwCanvasD2Ev T
__ZN3tvg8WgCanvas3genENS_12EngineOptionE T
__ZN3tvg8WgCanvas6targetEPvS1_S1_jjNS_10ColorSpaceEi T
__ZN3tvg8WgCanvasC1Ev T
__ZN3tvg8WgCanvasC2Ev T
__ZN3tvg8WgCanvasD0Ev T
__ZN3tvg8WgCanvasD1Ev T
__ZN3tvg8WgCanvasD2Ev T
__ZN3tvg9Animation3genEv T
__ZN3tvg9Animation5frameEf T
__ZN3tvg9Animation7segmentEPfS1_ T
__ZN3tvg9Animation7segmentEff T
__ZN3tvg9AnimationC1Ev T
__ZN3tvg9AnimationC2Ev T
__ZN3tvg9AnimationD0Ev T
__ZN3tvg9AnimationD1Ev T
__ZN3tvg9AnimationD2Ev T
__ZNK3tvg14LinearGradient4typeEv T
__ZNK3tvg14LinearGradient6linearEPfS1_S1_S1_ T
__ZNK3tvg14RadialGradient4typeEv T
__ZNK3tvg14RadialGradient6radialEPfS1_S1_S1_S1_S1_ T
__ZNK3tvg4Fill10colorStopsEPPKNS0_9ColorStopE T
__ZNK3tvg4Fill6spreadEv T
__ZNK3tvg4Fill9duplicateEv T
__ZNK3tvg4Fill9transformEv T
__ZNK3tvg4Text4textEv T
__ZNK3tvg4Text4typeEv T
__ZNK3tvg4Text7metricsEPKcRNS_12GlyphMetricsE T
__ZNK3tvg4Text7metricsERNS_11TextMetricsE T
__ZNK3tvg5Paint4Impl4maskEPPKS0_ T
__ZNK3tvg5Paint4clipEv T
__ZNK3tvg5Paint4maskEPPKS0_ T
__ZNK3tvg5Paint6parentEv T
__ZNK3tvg5Paint6refCntEv T
__ZNK3tvg5Paint7opacityEv T
__ZNK3tvg5Paint7visibleEv T
__ZNK3tvg5Paint9duplicateEv T
__ZNK3tvg5Scene4typeEv T
__ZNK3tvg5Scene6paintsEv T
__ZNK3tvg5Shape10strokeDashEPPKfPf T
__ZNK3tvg5Shape10strokeFillEPhS1_S1_S1_ T
__ZNK3tvg5Shape10strokeFillEv T
__ZNK3tvg5Shape10strokeJoinEv T
__ZNK3tvg5Shape11strokeWidthEv T
__ZNK3tvg5Shape16strokeMiterlimitEv T
__ZNK3tvg5Shape4fillEPhS1_S1_S1_ T
__ZNK3tvg5Shape4fillEv T
__ZNK3tvg5Shape4pathEPPKNS_11PathCommandEPjPPKNS_5PointES5_ T
__ZNK3tvg5Shape4typeEv T
__ZNK3tvg5Shape8fillRuleEv T
__ZNK3tvg5Shape9strokeCapEv T
__ZNK3tvg6Canvas6paintsEv T
__ZNK3tvg7Picture4sizeEPfS1_ T
__ZNK3tvg7Picture4typeEv T
__ZNK3tvg7Picture6originEPfS1_ T
__ZNK3tvg9Animation10totalFrameEv T
__ZNK3tvg9Animation7pictureEv T
__ZNK3tvg9Animation8curFrameEv T
__ZNK3tvg9Animation8durationEv T
__ZTVN3tvg14LinearGradientE S
__ZTVN3tvg14RadialGradientE S
__ZTVN3tvg15LottieAnimationE S
__ZTVN3tvg4FillE S
__ZTVN3tvg4TextE S
__ZTVN3tvg5PaintE S
__ZTVN3tvg5SceneE S
__ZTVN3tvg5ShapeE S
__ZTVN3tvg6CanvasE S
__ZTVN3tvg7PictureE S
__ZTVN3tvg8AccessorE S
__ZTVN3tvg8GlCanvasE S
__ZTVN3tvg8SwCanvasE S
__ZTVN3tvg8WgCanvasE S
__ZTVN3tvg9AnimationE S
__ZdaPv T
__ZdlPv T
__Znam T
__Znwm T

